; Function Attrs: nounwind uwtable
define range(i32 0, 2) i32 @Gia_ManComputeTfos_rec(ptr noundef %0, i32 noundef %1, i32 noundef %2, ptr noundef %3) local_unnamed_addr #4 {
  %5 = getelementptr i8, ptr %0, i64 176
  %.val29 = load i32, ptr %5, align 8, !tbaa !90
  %6 = getelementptr i8, ptr %0, i64 616
  %.val30 = load ptr, ptr %6, align 8, !tbaa !91
  %7 = sext i32 %1 to i64
  %8 = getelementptr inbounds i32, ptr %.val30, i64 %7
  %9 = load i32, ptr %8, align 4, !tbaa !30
  %10 = add nsw i32 %.val29, -1
  %.not = icmp eq i32 %9, %10
  br i1 %.not, label %65, label %11

11:                                               ; preds = %4
  %.not37 = icmp eq i32 %9, %.val29
  br i1 %.not37, label %65, label %12

12:                                               ; preds = %11
  %13 = getelementptr i8, ptr %0, i64 32
  %.val = load ptr, ptr %13, align 8, !tbaa !40
  %14 = getelementptr inbounds %struct.Gia_Obj_t_, ptr %.val, i64 %7
  %.val26 = load i64, ptr %14, align 4
  %15 = and i64 %.val26, 2147483648
  %.not.i = icmp ne i64 %15, 0
  %16 = and i64 %.val26, 536870911
  %17 = icmp eq i64 %16, 536870911
  %narrow.i.not = or i1 %.not.i, %17
  br i1 %narrow.i.not, label %65, label %18

18:                                               ; preds = %12
  %19 = trunc i64 %.val26 to i32
  %20 = and i32 %19, 536870911
  %21 = sub nsw i32 %1, %20
  %22 = tail call i32 @Gia_ManComputeTfos_rec(ptr noundef nonnull %0, i32 noundef %21, i32 noundef %2, ptr noundef %3)
  %.val28 = load i64, ptr %14, align 4
  %23 = lshr i64 %.val28, 32
  %24 = trunc nuw i64 %23 to i32
  %25 = and i32 %24, 536870911
  %26 = sub nsw i32 %1, %25
  %27 = tail call i32 @Gia_ManComputeTfos_rec(ptr noundef nonnull %0, i32 noundef %26, i32 noundef %2, ptr noundef %3)
  %28 = or i32 %27, %22
  %.not25 = icmp eq i32 %28, 0
  %.val35 = load i32, ptr %5, align 8, !tbaa !90
  %.val36 = load ptr, ptr %6, align 8, !tbaa !91
  br i1 %.not25, label %63, label %29

29:                                               ; preds = %18
  %30 = add nsw i32 %.val35, -1
  %31 = getelementptr inbounds i32, ptr %.val36, i64 %7
  store i32 %30, ptr %31, align 4, !tbaa !30
  %32 = getelementptr inbounds nuw i8, ptr %3, i64 4
  %33 = load i32, ptr %32, align 4, !tbaa !28
  %34 = load i32, ptr %3, align 8, !tbaa !80
  %35 = icmp eq i32 %33, %34
  br i1 %35, label %36, label %.Vec_IntGrow.exit10_crit_edge.i

.Vec_IntGrow.exit10_crit_edge.i:                  ; preds = %29
  %.phi.trans.insert.i = getelementptr inbounds nuw i8, ptr %3, i64 8
  %.pre.i = load ptr, ptr %.phi.trans.insert.i, align 8, !tbaa !29
  br label %Vec_IntPush.exit

36:                                               ; preds = %29
  %37 = icmp slt i32 %33, 16
  br i1 %37, label %38, label %46

38:                                               ; preds = %36
  %39 = getelementptr inbounds nuw i8, ptr %3, i64 8
  %40 = load ptr, ptr %39, align 8, !tbaa !29
  %.not9.i.i = icmp eq ptr %40, null
  br i1 %.not9.i.i, label %43, label %41

41:                                               ; preds = %38
  %42 = tail call dereferenceable_or_null(64) ptr @realloc(ptr noundef nonnull %40, i64 noundef 64) #34
  br label %Vec_IntGrow.exit.i

43:                                               ; preds = %38
  %44 = tail call noalias dereferenceable_or_null(64) ptr @malloc(i64 noundef 64) #31
  br label %Vec_IntGrow.exit.i

Vec_IntGrow.exit.i:                               ; preds = %43, %41
  %45 = phi ptr [ %42, %41 ], [ %44, %43 ]
  store ptr %45, ptr %39, align 8, !tbaa !29
  store i32 16, ptr %3, align 8, !tbaa !80
  br label %Vec_IntPush.exit

46:                                               ; preds = %36
  %47 = shl nuw nsw i32 %33, 1
  %48 = getelementptr inbounds nuw i8, ptr %3, i64 8
  %49 = load ptr, ptr %48, align 8, !tbaa !29
  %.not9.i9.i = icmp eq ptr %49, null
  %50 = zext nneg i32 %47 to i64
  %51 = shl nuw nsw i64 %50, 2
  br i1 %.not9.i9.i, label %54, label %52

52:                                               ; preds = %46
  %53 = tail call ptr @realloc(ptr noundef nonnull %49, i64 noundef %51) #34
  br label %56

54:                                               ; preds = %46
  %55 = tail call noalias ptr @malloc(i64 noundef %51) #31
  br label %56

56:                                               ; preds = %54, %52
  %57 = phi ptr [ %53, %52 ], [ %55, %54 ]
  store ptr %57, ptr %48, align 8, !tbaa !29
  store i32 %47, ptr %3, align 8, !tbaa !80
  br label %Vec_IntPush.exit

Vec_IntPush.exit:                                 ; preds = %.Vec_IntGrow.exit10_crit_edge.i, %Vec_IntGrow.exit.i, %56
  %58 = phi ptr [ %.pre.i, %.Vec_IntGrow.exit10_crit_edge.i ], [ %57, %56 ], [ %45, %Vec_IntGrow.exit.i ]
  %59 = load i32, ptr %32, align 4, !tbaa !28
  %60 = add nsw i32 %59, 1
  store i32 %60, ptr %32, align 4, !tbaa !28
  %61 = sext i32 %59 to i64
  %62 = getelementptr inbounds i32, ptr %58, i64 %61
  store i32 %1, ptr %62, align 4, !tbaa !30
  br label %65

63:                                               ; preds = %18
  %64 = getelementptr inbounds i32, ptr %.val36, i64 %7
  store i32 %.val35, ptr %64, align 4, !tbaa !30
  br label %65

65:                                               ; preds = %12, %11, %4, %63, %Vec_IntPush.exit
  %.0 = phi i32 [ 1, %Vec_IntPush.exit ], [ 0, %63 ], [ 1, %4 ], [ 0, %11 ], [ 0, %12 ]
  ret i32 %.0
}